target datalayout = "e-m:e-p270:32:32-p271:32:32-p272:64:64-i64:64-i128:128-f80:128-n8:16:32:64-S128"
target triple = "x86_64-pc-linux-gnu"

%struct.Cut_CMan_t_ = type { ptr, ptr, [10 x ptr], [9 x [16 x i32]], [22 x [16 x i32]], [22 x [16 x i32]], [22 x [16 x i32]], [16 x i32], [16 x i32], i32, i32, [10 x i32], [10 x i32], [10 x i32], i64, i64, i64, i32, i32 }
%struct.Cut_Cell_t_ = type { ptr, ptr, ptr, i32, [4 x i8], i32, [12 x i8], [18 x i16], [16 x i32] }

; Function Attrs: inlinehint nounwind uwtable
define internal i32 @Extra_TruthIsEqual(ptr noundef %0, ptr noundef %1, i32 noundef %2) #5 {
  %4 = alloca i32, align 4
  %5 = alloca ptr, align 8
  %6 = alloca ptr, align 8
  %7 = alloca i32, align 4
  %8 = alloca i32, align 4
  %9 = alloca i32, align 4
  store ptr %0, ptr %5, align 8, !tbaa !29
  store ptr %1, ptr %6, align 8, !tbaa !29
  store i32 %2, ptr %7, align 4, !tbaa !12
  call void @llvm.lifetime.start.p0(i64 4, ptr %8) #9
  %10 = load i32, ptr %7, align 4, !tbaa !12
  %11 = call i32 @Extra_TruthWordNum(i32 noundef %10)
  %12 = sub nsw i32 %11, 1
  store i32 %12, ptr %8, align 4, !tbaa !12
  br label %13

13:                                               ; preds = %30, %3
  %14 = load i32, ptr %8, align 4, !tbaa !12
  %15 = icmp sge i32 %14, 0
  br i1 %15, label %16, label %33

16:                                               ; preds = %13
  %17 = load ptr, ptr %5, align 8, !tbaa !29
  %18 = load i32, ptr %8, align 4, !tbaa !12
  %19 = sext i32 %18 to i64
  %20 = getelementptr inbounds i32, ptr %17, i64 %19
  %21 = load i32, ptr %20, align 4, !tbaa !12
  %22 = load ptr, ptr %6, align 8, !tbaa !29
  %23 = load i32, ptr %8, align 4, !tbaa !12
  %24 = sext i32 %23 to i64
  %25 = getelementptr inbounds i32, ptr %22, i64 %24
  %26 = load i32, ptr %25, align 4, !tbaa !12
  %27 = icmp ne i32 %21, %26
  br i1 %27, label %28, label %29

28:                                               ; preds = %16
  store i32 0, ptr %4, align 4
  store i32 1, ptr %9, align 4
  br label %34

29:                                               ; preds = %16
  br label %30

30:                                               ; preds = %29
  %31 = load i32, ptr %8, align 4, !tbaa !12
  %32 = add nsw i32 %31, -1
  store i32 %32, ptr %8, align 4, !tbaa !12
  br label %13, !llvm.loop !106

33:                                               ; preds = %13
  store i32 1, ptr %4, align 4
  store i32 1, ptr %9, align 4
  br label %34

34:                                               ; preds = %33, %28
  call void @llvm.lifetime.end.p0(i64 4, ptr %8) #9
  %35 = load i32, ptr %4, align 4
  ret i32 %35
}

; Function Attrs: inlinehint nounwind uwtable
define internal i32 @Extra_TruthWordNum(i32 noundef %0) #5 {
  %2 = alloca i32, align 4
  store i32 %0, ptr %2, align 4, !tbaa !12
  %3 = load i32, ptr %2, align 4, !tbaa !12
  %4 = icmp sle i32 %3, 5
  br i1 %4, label %5, label %6

5:                                                ; preds = %1
  br label %10

6:                                                ; preds = %1
  %7 = load i32, ptr %2, align 4, !tbaa !12
  %8 = sub nsw i32 %7, 5
  %9 = shl i32 1, %8
  br label %10

10:                                               ; preds = %6, %5
  %11 = phi i32 [ 1, %5 ], [ %9, %6 ]
  ret i32 %11
}

; Function Attrs: nounwind uwtable
define internal i32 @Cut_CellTableLookup(ptr noundef %0, ptr noundef %1) #0 {
  %3 = alloca i32, align 4
  %4 = alloca ptr, align 8
  %5 = alloca ptr, align 8
  %6 = alloca ptr, align 8
  %7 = alloca ptr, align 8
  %8 = alloca i32, align 4
  %9 = alloca i32, align 4
  store ptr %0, ptr %4, align 8, !tbaa !10
  store ptr %1, ptr %5, align 8, !tbaa !22
  call void @llvm.lifetime.start.p0(i64 8, ptr %6) #9
  call void @llvm.lifetime.start.p0(i64 8, ptr %7) #9
  call void @llvm.lifetime.start.p0(i64 4, ptr %8) #9
  %10 = load ptr, ptr %5, align 8, !tbaa !22
  %11 = getelementptr inbounds nuw %struct.Cut_Cell_t_, ptr %10, i32 0, i32 8
  %12 = getelementptr inbounds [16 x i32], ptr %11, i64 0, i64 0
  %13 = load ptr, ptr %5, align 8, !tbaa !22
  %14 = getelementptr inbounds nuw %struct.Cut_Cell_t_, ptr %13, i32 0, i32 5
  %15 = load i32, ptr %14, align 8
  %16 = and i32 %15, 15
  %17 = call i32 @Extra_TruthWordNum(i32 noundef %16)
  %18 = call i32 @Extra_TruthHash(ptr noundef %12, i32 noundef %17)
  store i32 %18, ptr %8, align 4, !tbaa !12
  %19 = load ptr, ptr %4, align 8, !tbaa !10
  %20 = getelementptr inbounds nuw %struct.Cut_CMan_t_, ptr %19, i32 0, i32 1
  %21 = load ptr, ptr %20, align 8, !tbaa !33
  %22 = load i32, ptr %8, align 4, !tbaa !12
  %23 = zext i32 %22 to i64
  %24 = inttoptr i64 %23 to ptr
  %25 = call i32 @st__find_or_add(ptr noundef %21, ptr noundef %24, ptr noundef %6)
  %26 = icmp ne i32 %25, 0
  br i1 %26, label %29, label %27

27:                                               ; preds = %2
  %28 = load ptr, ptr %6, align 8, !tbaa !34
  store ptr null, ptr %28, align 8, !tbaa !22
  br label %29

29:                                               ; preds = %27, %2
  %30 = load ptr, ptr %6, align 8, !tbaa !34
  %31 = load ptr, ptr %30, align 8, !tbaa !22
  store ptr %31, ptr %7, align 8, !tbaa !22
  br label %32

32:                                               ; preds = %61, %29
  %33 = load ptr, ptr %7, align 8, !tbaa !22
  %34 = icmp ne ptr %33, null
  br i1 %34, label %35, label %65

35:                                               ; preds = %32
  %36 = load ptr, ptr %7, align 8, !tbaa !22
  %37 = getelementptr inbounds nuw %struct.Cut_Cell_t_, ptr %36, i32 0, i32 5
  %38 = load i32, ptr %37, align 8
  %39 = and i32 %38, 15
  %40 = load ptr, ptr %5, align 8, !tbaa !22
  %41 = getelementptr inbounds nuw %struct.Cut_Cell_t_, ptr %40, i32 0, i32 5
  %42 = load i32, ptr %41, align 8
  %43 = and i32 %42, 15
  %44 = icmp ne i32 %39, %43
  br i1 %44, label %45, label %46

45:                                               ; preds = %35
  br label %61

46:                                               ; preds = %35
  %47 = load ptr, ptr %7, align 8, !tbaa !22
  %48 = getelementptr inbounds nuw %struct.Cut_Cell_t_, ptr %47, i32 0, i32 8
  %49 = getelementptr inbounds [16 x i32], ptr %48, i64 0, i64 0
  %50 = load ptr, ptr %5, align 8, !tbaa !22
  %51 = getelementptr inbounds nuw %struct.Cut_Cell_t_, ptr %50, i32 0, i32 8
  %52 = getelementptr inbounds [16 x i32], ptr %51, i64 0, i64 0
  %53 = load ptr, ptr %5, align 8, !tbaa !22
  %54 = getelementptr inbounds nuw %struct.Cut_Cell_t_, ptr %53, i32 0, i32 5
  %55 = load i32, ptr %54, align 8
  %56 = and i32 %55, 15
  %57 = call i32 @Extra_TruthIsEqual(ptr noundef %49, ptr noundef %52, i32 noundef %56)
  %58 = icmp ne i32 %57, 0
  br i1 %58, label %59, label %60

59:                                               ; preds = %46
  store i32 1, ptr %3, align 4
  store i32 1, ptr %9, align 4
  br label %92

60:                                               ; preds = %46
  br label %61

61:                                               ; preds = %60, %45
  %62 = load ptr, ptr %7, align 8, !tbaa !22
  %63 = getelementptr inbounds nuw %struct.Cut_Cell_t_, ptr %62, i32 0, i32 0
  %64 = load ptr, ptr %63, align 8, !tbaa !36
  store ptr %64, ptr %7, align 8, !tbaa !22
  br label %32, !llvm.loop !37

65:                                               ; preds = %32
  %66 = load ptr, ptr %6, align 8, !tbaa !34
  %67 = load ptr, ptr %66, align 8, !tbaa !22
  %68 = load ptr, ptr %5, align 8, !tbaa !22
  %69 = getelementptr inbounds nuw %struct.Cut_Cell_t_, ptr %68, i32 0, i32 0
  store ptr %67, ptr %69, align 8, !tbaa !36
  %70 = load ptr, ptr %5, align 8, !tbaa !22
  %71 = load ptr, ptr %6, align 8, !tbaa !34
  store ptr %70, ptr %71, align 8, !tbaa !22
  %72 = load ptr, ptr %4, align 8, !tbaa !10
  %73 = getelementptr inbounds nuw %struct.Cut_CMan_t_, ptr %72, i32 0, i32 2
  %74 = load ptr, ptr %5, align 8, !tbaa !22
  %75 = getelementptr inbounds nuw %struct.Cut_Cell_t_, ptr %74, i32 0, i32 5
  %76 = load i32, ptr %75, align 8
  %77 = and i32 %76, 15
  %78 = zext i32 %77 to i64
  %79 = getelementptr inbounds nuw [10 x ptr], ptr %73, i64 0, i64 %78
  %80 = load ptr, ptr %79, align 8, !tbaa !22
  %81 = load ptr, ptr %5, align 8, !tbaa !22
  %82 = getelementptr inbounds nuw %struct.Cut_Cell_t_, ptr %81, i32 0, i32 1
  store ptr %80, ptr %82, align 8, !tbaa !38
  %83 = load ptr, ptr %5, align 8, !tbaa !22
  %84 = load ptr, ptr %4, align 8, !tbaa !10
  %85 = getelementptr inbounds nuw %struct.Cut_CMan_t_, ptr %84, i32 0, i32 2
  %86 = load ptr, ptr %5, align 8, !tbaa !22
  %87 = getelementptr inbounds nuw %struct.Cut_Cell_t_, ptr %86, i32 0, i32 5
  %88 = load i32, ptr %87, align 8
  %89 = and i32 %88, 15
  %90 = zext i32 %89 to i64
  %91 = getelementptr inbounds nuw [10 x ptr], ptr %85, i64 0, i64 %90
  store ptr %83, ptr %91, align 8, !tbaa !22
  store i32 0, ptr %3, align 4
  store i32 1, ptr %9, align 4
  br label %92

92:                                               ; preds = %65, %59
  call void @llvm.lifetime.end.p0(i64 4, ptr %8) #9
  call void @llvm.lifetime.end.p0(i64 8, ptr %7) #9
  call void @llvm.lifetime.end.p0(i64 8, ptr %6) #9
  %93 = load i32, ptr %3, align 4
  ret i32 %93
}