; Function Attrs: nounwind uwtable
define internal fastcc range(i32 0, 2) i32 @Cut_CellTableLookup(ptr noundef captures(none) %0, ptr noundef %1) unnamed_addr #0 {
  %3 = alloca ptr, align 8
  call void @llvm.lifetime.start.p0(i64 8, ptr nonnull %3) #16
  %4 = getelementptr inbounds nuw i8, ptr %1, i64 84
  %5 = getelementptr inbounds nuw i8, ptr %1, i64 32
  %6 = load i32, ptr %5, align 8
  %7 = and i32 %6, 15
  %8 = icmp samesign ult i32 %7, 6
  %9 = add nsw i32 %7, -5
  %10 = shl nuw nsw i32 1, %9
  %11 = select i1 %8, i32 1, i32 %10
  %12 = tail call i32 @Extra_TruthHash(ptr noundef nonnull %4, i32 noundef %11) #16
  %13 = getelementptr inbounds nuw i8, ptr %0, i64 8
  %14 = load ptr, ptr %13, align 8, !tbaa !3
  %15 = zext i32 %12 to i64
  %16 = inttoptr i64 %15 to ptr
  %17 = call i32 @st__find_or_add(ptr noundef %14, ptr noundef %16, ptr noundef nonnull %3) #16
  %.not = icmp eq i32 %17, 0
  %.pre = load ptr, ptr %3, align 8, !tbaa !29
  br i1 %.not, label %._crit_edge, label %18

18:                                               ; preds = %2
  %.01926.pre = load ptr, ptr %.pre, align 8, !tbaa !31
  %.not2127 = icmp eq ptr %.01926.pre, null
  br i1 %.not2127, label %._crit_edge, label %.lr.ph

.lr.ph:                                           ; preds = %18
  %19 = load i32, ptr %5, align 8
  %20 = and i32 %19, 15
  %21 = icmp samesign ult i32 %20, 6
  %22 = add nsw i32 %20, -5
  %23 = shl nuw nsw i32 1, %22
  %spec.select.i = select i1 %21, i32 1, i32 %23
  %24 = zext nneg i32 %spec.select.i to i64
  br label %25

25:                                               ; preds = %.lr.ph, %Extra_TruthIsEqual.exit.thread
  %.01928 = phi ptr [ %.01926.pre, %.lr.ph ], [ %.019, %Extra_TruthIsEqual.exit.thread ]
  %26 = getelementptr inbounds nuw i8, ptr %.01928, i64 32
  %27 = load i32, ptr %26, align 8
  %28 = and i32 %27, 15
  %.not22 = icmp eq i32 %28, %20
  br i1 %.not22, label %29, label %Extra_TruthIsEqual.exit.thread

29:                                               ; preds = %25
  %30 = getelementptr inbounds nuw i8, ptr %.01928, i64 84
  br label %select.unfold.i

select.unfold.i:                                  ; preds = %32, %29
  %indvars.iv.i = phi i64 [ %24, %29 ], [ %indvars.iv.next.i, %32 ]
  %31 = icmp sgt i64 %indvars.iv.i, 0
  br i1 %31, label %32, label %Extra_TruthIsEqual.exit

32:                                               ; preds = %select.unfold.i
  %indvars.iv.next.i = add nsw i64 %indvars.iv.i, -1
  %33 = getelementptr inbounds nuw i32, ptr %30, i64 %indvars.iv.next.i
  %34 = load i32, ptr %33, align 4, !tbaa !13
  %35 = getelementptr inbounds nuw i32, ptr %4, i64 %indvars.iv.next.i
  %36 = load i32, ptr %35, align 4, !tbaa !13
  %.not.i = icmp eq i32 %34, %36
  br i1 %.not.i, label %select.unfold.i, label %Extra_TruthIsEqual.exit.thread, !llvm.loop !32

Extra_TruthIsEqual.exit.thread:                   ; preds = %32, %25
  %.019 = load ptr, ptr %.01928, align 8, !tbaa !31
  %.not21 = icmp eq ptr %.019, null
  br i1 %.not21, label %._crit_edge, label %25, !llvm.loop !33

._crit_edge:                                      ; preds = %Extra_TruthIsEqual.exit.thread, %2, %18
  %37 = phi ptr [ null, %18 ], [ null, %2 ], [ %.01926.pre, %Extra_TruthIsEqual.exit.thread ]
  store ptr %37, ptr %1, align 8, !tbaa !34
  store ptr %1, ptr %.pre, align 8, !tbaa !31
  %38 = getelementptr inbounds nuw i8, ptr %0, i64 16
  %39 = load i32, ptr %5, align 8
  %40 = and i32 %39, 15
  %41 = zext nneg i32 %40 to i64
  %42 = getelementptr inbounds nuw [10 x ptr], ptr %38, i64 0, i64 %41
  %43 = load ptr, ptr %42, align 8, !tbaa !31
  %44 = getelementptr inbounds nuw i8, ptr %1, i64 8
  store ptr %43, ptr %44, align 8, !tbaa !35
  store ptr %1, ptr %42, align 8, !tbaa !31
  br label %Extra_TruthIsEqual.exit

Extra_TruthIsEqual.exit:                          ; preds = %select.unfold.i, %._crit_edge
  %.0 = phi i32 [ 0, %._crit_edge ], [ 1, %select.unfold.i ]
  call void @llvm.lifetime.end.p0(i64 8, ptr nonnull %3) #16
  ret i32 %.0
}